target datalayout = "e-m:e-p270:32:32-p271:32:32-p272:64:64-i64:64-i128:128-f80:128-n8:16:32:64-S128"
target triple = "x86_64-pc-linux-gnu"

%"class.OpenSubdiv::v3_6_0::Bfr::SurfaceFactoryCache" = type { ptr, %"class.std::map" }
%"class.std::map" = type { %"class.std::_Rb_tree" }
%"class.std::_Rb_tree" = type { %"struct.std::_Rb_tree<unsigned long, std::pair<const unsigned long, std::shared_ptr<const OpenSubdiv::v3_6_0::Bfr::PatchTree>>, std::_Select1st<std::pair<const unsigned long, std::shared_ptr<const OpenSubdiv::v3_6_0::Bfr::PatchTree>>>, std::less<unsigned long>>::_Rb_tree_impl" }
%"struct.std::_Rb_tree<unsigned long, std::pair<const unsigned long, std::shared_ptr<const OpenSubdiv::v3_6_0::Bfr::PatchTree>>, std::_Select1st<std::pair<const unsigned long, std::shared_ptr<const OpenSubdiv::v3_6_0::Bfr::PatchTree>>>, std::less<unsigned long>>::_Rb_tree_impl" = type { [8 x i8], %"struct.std::_Rb_tree_header" }
%"struct.std::_Rb_tree_header" = type { %"struct.std::_Rb_tree_node_base", i64 }
%"struct.std::_Rb_tree_node_base" = type { i32, ptr, ptr, ptr }

; Function Attrs: mustprogress nounwind uwtable
define linkonce_odr void @_ZNSt15__new_allocatorISt13_Rb_tree_nodeISt4pairIKmSt10shared_ptrIKN10OpenSubdiv6v3_6_03Bfr9PatchTreeEEEEED2Ev(ptr noundef nonnull align 1 dereferenceable(1) %0) unnamed_addr #0 comdat align 2 {
  %2 = alloca ptr, align 8
  store ptr %0, ptr %2, align 8
  ret void
}

; Function Attrs: mustprogress nounwind uwtable
define linkonce_odr void @_ZNSaISt13_Rb_tree_nodeISt4pairIKmSt10shared_ptrIKN10OpenSubdiv6v3_6_03Bfr9PatchTreeEEEEED2Ev(ptr noundef nonnull align 1 dereferenceable(1) %0) unnamed_addr #0 comdat align 2 {
  %2 = alloca ptr, align 8
  store ptr %0, ptr %2, align 8
  %3 = load ptr, ptr %2, align 8
  call void @_ZNSt15__new_allocatorISt13_Rb_tree_nodeISt4pairIKmSt10shared_ptrIKN10OpenSubdiv6v3_6_03Bfr9PatchTreeEEEEED2Ev(ptr noundef nonnull align 1 dereferenceable(1) %3) #10
  ret void
}

; Function Attrs: mustprogress nounwind uwtable
define linkonce_odr noundef ptr @_ZNKSt8_Rb_treeImSt4pairIKmSt10shared_ptrIKN10OpenSubdiv6v3_6_03Bfr9PatchTreeEEESt10_Select1stIS9_ESt4lessImESaIS9_EE9_M_mbeginEv(ptr noundef nonnull align 8 dereferenceable(48) %0) #0 comdat align 2 {
  %2 = alloca ptr, align 8
  store ptr %0, ptr %2, align 8
  %3 = load ptr, ptr %2, align 8
  %4 = getelementptr inbounds nuw %"class.std::_Rb_tree", ptr %3, i32 0, i32 0
  %5 = getelementptr inbounds i8, ptr %4, i64 8
  %6 = getelementptr inbounds nuw %"struct.std::_Rb_tree_header", ptr %5, i32 0, i32 0
  %7 = getelementptr inbounds nuw %"struct.std::_Rb_tree_node_base", ptr %6, i32 0, i32 1
  %8 = load ptr, ptr %7, align 8
  ret ptr %8
}

; Function Attrs: mustprogress nounwind uwtable
define linkonce_odr void @_ZNSt8_Rb_treeImSt4pairIKmSt10shared_ptrIKN10OpenSubdiv6v3_6_03Bfr9PatchTreeEEESt10_Select1stIS9_ESt4lessImESaIS9_EE13_Rb_tree_implISD_Lb1EED2Ev(ptr noundef nonnull align 8 dereferenceable(48) %0) unnamed_addr #0 comdat align 2 {
  %2 = alloca ptr, align 8
  store ptr %0, ptr %2, align 8
  %3 = load ptr, ptr %2, align 8
  call void @_ZNSaISt13_Rb_tree_nodeISt4pairIKmSt10shared_ptrIKN10OpenSubdiv6v3_6_03Bfr9PatchTreeEEEEED2Ev(ptr noundef nonnull align 1 dereferenceable(1) %3) #10
  ret void
}

; Function Attrs: mustprogress nounwind uwtable
define linkonce_odr noundef ptr @_ZNSt8_Rb_treeImSt4pairIKmSt10shared_ptrIKN10OpenSubdiv6v3_6_03Bfr9PatchTreeEEESt10_Select1stIS9_ESt4lessImESaIS9_EE8_M_beginEv(ptr noundef nonnull align 8 dereferenceable(48) %0) #0 comdat align 2 {
  %2 = alloca ptr, align 8
  store ptr %0, ptr %2, align 8
  %3 = load ptr, ptr %2, align 8
  %4 = call noundef ptr @_ZNKSt8_Rb_treeImSt4pairIKmSt10shared_ptrIKN10OpenSubdiv6v3_6_03Bfr9PatchTreeEEESt10_Select1stIS9_ESt4lessImESaIS9_EE9_M_mbeginEv(ptr noundef nonnull align 8 dereferenceable(48) %3) #10
  ret ptr %4
}

; Function Attrs: mustprogress nounwind uwtable
define linkonce_odr void @_ZNSt8_Rb_treeImSt4pairIKmSt10shared_ptrIKN10OpenSubdiv6v3_6_03Bfr9PatchTreeEEESt10_Select1stIS9_ESt4lessImESaIS9_EED2Ev(ptr noundef nonnull align 8 dereferenceable(48) %0) unnamed_addr #0 comdat align 2 personality ptr @__gxx_personality_v0 {
  %2 = alloca ptr, align 8
  store ptr %0, ptr %2, align 8
  %3 = load ptr, ptr %2, align 8
  %4 = call noundef ptr @_ZNSt8_Rb_treeImSt4pairIKmSt10shared_ptrIKN10OpenSubdiv6v3_6_03Bfr9PatchTreeEEESt10_Select1stIS9_ESt4lessImESaIS9_EE8_M_beginEv(ptr noundef nonnull align 8 dereferenceable(48) %3) #10
  invoke void @_ZNSt8_Rb_treeImSt4pairIKmSt10shared_ptrIKN10OpenSubdiv6v3_6_03Bfr9PatchTreeEEESt10_Select1stIS9_ESt4lessImESaIS9_EE8_M_eraseEPSt13_Rb_tree_nodeIS9_E(ptr noundef nonnull align 8 dereferenceable(48) %3, ptr noundef %4)
          to label %5 unwind label %7

5:                                                ; preds = %1
  %6 = getelementptr inbounds nuw %"class.std::_Rb_tree", ptr %3, i32 0, i32 0
  call void @_ZNSt8_Rb_treeImSt4pairIKmSt10shared_ptrIKN10OpenSubdiv6v3_6_03Bfr9PatchTreeEEESt10_Select1stIS9_ESt4lessImESaIS9_EE13_Rb_tree_implISD_Lb1EED2Ev(ptr noundef nonnull align 8 dereferenceable(48) %6) #10
  ret void

7:                                                ; preds = %1
  %8 = landingpad { ptr, i32 }
          catch ptr null
  %9 = extractvalue { ptr, i32 } %8, 0
  call void @__clang_call_terminate(ptr %9) #12
  unreachable
}

; Function Attrs: mustprogress nounwind uwtable
define linkonce_odr void @_ZNSt3mapImSt10shared_ptrIKN10OpenSubdiv6v3_6_03Bfr9PatchTreeEESt4lessImESaISt4pairIKmS6_EEED2Ev(ptr noundef nonnull align 8 dereferenceable(48) %0) unnamed_addr #0 comdat align 2 {
  %2 = alloca ptr, align 8
  store ptr %0, ptr %2, align 8
  %3 = load ptr, ptr %2, align 8
  %4 = getelementptr inbounds nuw %"class.std::map", ptr %3, i32 0, i32 0
  call void @_ZNSt8_Rb_treeImSt4pairIKmSt10shared_ptrIKN10OpenSubdiv6v3_6_03Bfr9PatchTreeEEESt10_Select1stIS9_ESt4lessImESaIS9_EED2Ev(ptr noundef nonnull align 8 dereferenceable(48) %4) #10
  ret void
}

; Function Attrs: mustprogress nounwind uwtable
define void @_ZN10OpenSubdiv6v3_6_03Bfr19SurfaceFactoryCacheD2Ev(ptr noundef nonnull align 8 dereferenceable(56) %0) unnamed_addr #0 align 2 {
  %2 = alloca ptr, align 8
  store ptr %0, ptr %2, align 8
  %3 = load ptr, ptr %2, align 8
  store ptr getelementptr inbounds inrange(-16, 32) ({ [6 x ptr] }, ptr @_ZTVN10OpenSubdiv6v3_6_03Bfr19SurfaceFactoryCacheE, i32 0, i32 0, i32 2), ptr %3, align 8
  %4 = getelementptr inbounds nuw %"class.OpenSubdiv::v3_6_0::Bfr::SurfaceFactoryCache", ptr %3, i32 0, i32 1
  call void @_ZNSt3mapImSt10shared_ptrIKN10OpenSubdiv6v3_6_03Bfr9PatchTreeEESt4lessImESaISt4pairIKmS6_EEED2Ev(ptr noundef nonnull align 8 dereferenceable(48) %4) #10
  ret void
}