; Function Attrs: mustprogress nounwind uwtable
define void @_ZN10OpenSubdiv6v3_6_03Bfr19SurfaceFactoryCacheD2Ev(ptr noundef nonnull align 8 dereferenceable(56) initializes((0, 8)) %0) unnamed_addr #0 align 2 personality ptr @__gxx_personality_v0 {
  store ptr getelementptr inbounds nuw inrange(-16, 32) (i8, ptr @_ZTVN10OpenSubdiv6v3_6_03Bfr19SurfaceFactoryCacheE, i64 16), ptr %0, align 8
  %2 = getelementptr inbounds nuw i8, ptr %0, i64 8
  %3 = getelementptr inbounds nuw i8, ptr %0, i64 24
  %4 = load ptr, ptr %3, align 8
  invoke void @_ZNSt8_Rb_treeImSt4pairIKmSt10shared_ptrIKN10OpenSubdiv6v3_6_03Bfr9PatchTreeEEESt10_Select1stIS9_ESt4lessImESaIS9_EE8_M_eraseEPSt13_Rb_tree_nodeIS9_E(ptr noundef nonnull align 8 dereferenceable(48) %2, ptr noundef %4)
          to label %_ZNSt3mapImSt10shared_ptrIKN10OpenSubdiv6v3_6_03Bfr9PatchTreeEESt4lessImESaISt4pairIKmS6_EEED2Ev.exit unwind label %5

5:                                                ; preds = %1
  %6 = landingpad { ptr, i32 }
          catch ptr null
  %7 = extractvalue { ptr, i32 } %6, 0
  tail call void @__clang_call_terminate(ptr %7) #15
  unreachable

_ZNSt3mapImSt10shared_ptrIKN10OpenSubdiv6v3_6_03Bfr9PatchTreeEESt4lessImESaISt4pairIKmS6_EEED2Ev.exit: ; preds = %1
  ret void
}